target datalayout = "e-m:e-p270:32:32-p271:32:32-p272:64:64-i64:64-i128:128-f80:128-n8:16:32:64-S128"
target triple = "x86_64-pc-linux-gnu"

; Function Attrs: nounwind uwtable
define dso_local i32 @jtransform_perfect_transform(i32 noundef %0, i32 noundef %1, i32 noundef %2, i32 noundef %3, i32 noundef %4) #0 {
  %6 = alloca i32, align 4
  %7 = alloca i32, align 4
  %8 = alloca i32, align 4
  %9 = alloca i32, align 4
  %10 = alloca i32, align 4
  %11 = alloca i32, align 4
  store i32 %0, ptr %6, align 4, !tbaa !28
  store i32 %1, ptr %7, align 4, !tbaa !28
  store i32 %2, ptr %8, align 4, !tbaa !28
  store i32 %3, ptr %9, align 4, !tbaa !28
  store i32 %4, ptr %10, align 4, !tbaa !28
  call void @llvm.lifetime.start.p0(i64 4, ptr %11) #6
  store i32 1, ptr %11, align 4, !tbaa !28
  %12 = load i32, ptr %10, align 4, !tbaa !28
  switch i32 %12, label %40 [
    i32 1, label %13
    i32 7, label %13
    i32 2, label %20
    i32 5, label %20
    i32 4, label %27
    i32 6, label %27
  ]

13:                                               ; preds = %5, %5
  %14 = load i32, ptr %6, align 4, !tbaa !28
  %15 = load i32, ptr %8, align 4, !tbaa !28
  %16 = urem i32 %14, %15
  %17 = icmp ne i32 %16, 0
  br i1 %17, label %18, label %19

18:                                               ; preds = %13
  store i32 0, ptr %11, align 4, !tbaa !28
  br label %19

19:                                               ; preds = %18, %13
  br label %41

20:                                               ; preds = %5, %5
  %21 = load i32, ptr %7, align 4, !tbaa !28
  %22 = load i32, ptr %9, align 4, !tbaa !28
  %23 = urem i32 %21, %22
  %24 = icmp ne i32 %23, 0
  br i1 %24, label %25, label %26

25:                                               ; preds = %20
  store i32 0, ptr %11, align 4, !tbaa !28
  br label %26

26:                                               ; preds = %25, %20
  br label %41

27:                                               ; preds = %5, %5
  %28 = load i32, ptr %6, align 4, !tbaa !28
  %29 = load i32, ptr %8, align 4, !tbaa !28
  %30 = urem i32 %28, %29
  %31 = icmp ne i32 %30, 0
  br i1 %31, label %32, label %33

32:                                               ; preds = %27
  store i32 0, ptr %11, align 4, !tbaa !28
  br label %33

33:                                               ; preds = %32, %27
  %34 = load i32, ptr %7, align 4, !tbaa !28
  %35 = load i32, ptr %9, align 4, !tbaa !28
  %36 = urem i32 %34, %35
  %37 = icmp ne i32 %36, 0
  br i1 %37, label %38, label %39

38:                                               ; preds = %33
  store i32 0, ptr %11, align 4, !tbaa !28
  br label %39

39:                                               ; preds = %38, %33
  br label %41

40:                                               ; preds = %5
  br label %41

41:                                               ; preds = %40, %39, %26, %19
  %42 = load i32, ptr %11, align 4, !tbaa !28
  call void @llvm.lifetime.end.p0(i64 4, ptr %11) #6
  ret i32 %42
}