; Function Attrs: mustprogress nofree norecurse nosync nounwind willreturn memory(none) uwtable
define dso_local range(i32 0, 2) i32 @jtransform_perfect_transform(i32 noundef %0, i32 noundef %1, i32 noundef %2, i32 noundef %3, i32 noundef %4) local_unnamed_addr #3 {
  switch i32 %4, label %14 [
    i32 1, label %6
    i32 7, label %6
    i32 2, label %8
    i32 5, label %8
    i32 4, label %10
    i32 6, label %10
  ]

6:                                                ; preds = %5, %5
  %7 = urem i32 %0, %2
  %.not12 = icmp eq i32 %7, 0
  br label %14

8:                                                ; preds = %5, %5
  %9 = urem i32 %1, %3
  %.not11 = icmp eq i32 %9, 0
  br label %14

10:                                               ; preds = %5, %5
  %11 = urem i32 %0, %2
  %12 = urem i32 %1, %3
  %13 = or i32 %12, %11
  %narrow = icmp eq i32 %13, 0
  br label %14

14:                                               ; preds = %10, %8, %6, %5
  %.0.shrunk = phi i1 [ true, %5 ], [ %.not12, %6 ], [ %.not11, %8 ], [ %narrow, %10 ]
  %.0 = zext i1 %.0.shrunk to i32
  ret i32 %.0
}